; Function Attrs: mustprogress nofree norecurse nosync nounwind memory(argmem: readwrite) uwtable
define dso_local void @_ZN4llvm15ValueProfRecord9swapBytesENS_10endiannessES1_(ptr noundef nonnull align 4 captures(none) dereferenceable(12) %0, i32 noundef %1, i32 noundef %2) local_unnamed_addr #10 align 2 {
  %4 = icmp eq i32 %1, %2
  br i1 %4, label %33, label %5

5:                                                ; preds = %3
  %.not = icmp eq i32 %1, 1
  %.phi.trans.insert = getelementptr inbounds nuw i8, ptr %0, i64 4
  %.pre = load i32, ptr %.phi.trans.insert, align 4
  br i1 %.not, label %._crit_edge15, label %6

6:                                                ; preds = %5
  %7 = tail call noundef i32 @llvm.bswap.i32(i32 %.pre)
  store i32 %7, ptr %.phi.trans.insert, align 4
  %8 = load i32, ptr %0, align 4
  %9 = tail call noundef i32 @llvm.bswap.i32(i32 %8)
  store i32 %9, ptr %0, align 4
  br label %._crit_edge15

._crit_edge15:                                    ; preds = %5, %6
  %10 = phi i32 [ %7, %6 ], [ %.pre, %5 ]
  %11 = getelementptr inbounds nuw i8, ptr %0, i64 4
  %.not.i = icmp eq i32 %10, 0
  br i1 %.not.i, label %._crit_edge, label %.lr.ph.i

.lr.ph.i:                                         ; preds = %._crit_edge15
  %12 = getelementptr inbounds nuw i8, ptr %0, i64 8
  %wide.trip.count.i = zext i32 %10 to i64
  br label %13

13:                                               ; preds = %13, %.lr.ph.i
  %indvars.iv.i = phi i64 [ 0, %.lr.ph.i ], [ %indvars.iv.next.i, %13 ]
  %.067.i = phi i32 [ 0, %.lr.ph.i ], [ %17, %13 ]
  %14 = getelementptr inbounds nuw [1 x i8], ptr %12, i64 0, i64 %indvars.iv.i
  %15 = load i8, ptr %14, align 1
  %16 = zext i8 %15 to i32
  %17 = add i32 %.067.i, %16
  %indvars.iv.next.i = add nuw nsw i64 %indvars.iv.i, 1
  %exitcond.not.i = icmp eq i64 %indvars.iv.next.i, %wide.trip.count.i
  br i1 %exitcond.not.i, label %_ZN4llvm30getValueProfRecordNumValueDataEPNS_15ValueProfRecordE.exit, label %13, !llvm.loop !144

_ZN4llvm30getValueProfRecordNumValueDataEPNS_15ValueProfRecordE.exit: ; preds = %13
  %18 = add i32 %10, 15
  %19 = and i32 %18, -8
  %20 = zext i32 %19 to i64
  %21 = getelementptr inbounds nuw i8, ptr %0, i64 %20
  %.not13 = icmp eq i32 %17, 0
  br i1 %.not13, label %._crit_edge, label %.lr.ph.preheader

.lr.ph.preheader:                                 ; preds = %_ZN4llvm30getValueProfRecordNumValueDataEPNS_15ValueProfRecordE.exit
  %wide.trip.count = zext i32 %17 to i64
  br label %.lr.ph

.lr.ph:                                           ; preds = %.lr.ph.preheader, %.lr.ph
  %indvars.iv = phi i64 [ 0, %.lr.ph.preheader ], [ %indvars.iv.next, %.lr.ph ]
  %22 = getelementptr inbounds nuw %struct.InstrProfValueData, ptr %21, i64 %indvars.iv
  %23 = load i64, ptr %22, align 8
  %24 = tail call noundef i64 @llvm.bswap.i64(i64 %23)
  store i64 %24, ptr %22, align 8
  %25 = getelementptr inbounds nuw i8, ptr %22, i64 8
  %26 = load i64, ptr %25, align 8
  %27 = tail call noundef i64 @llvm.bswap.i64(i64 %26)
  store i64 %27, ptr %25, align 8
  %indvars.iv.next = add nuw nsw i64 %indvars.iv, 1
  %exitcond.not = icmp eq i64 %indvars.iv.next, %wide.trip.count
  br i1 %exitcond.not, label %._crit_edge, label %.lr.ph, !llvm.loop !158

._crit_edge:                                      ; preds = %.lr.ph, %._crit_edge15, %_ZN4llvm30getValueProfRecordNumValueDataEPNS_15ValueProfRecordE.exit
  br i1 %.not, label %28, label %33

28:                                               ; preds = %._crit_edge
  %29 = load i32, ptr %11, align 4
  %30 = tail call noundef i32 @llvm.bswap.i32(i32 %29)
  store i32 %30, ptr %11, align 4
  %31 = load i32, ptr %0, align 4
  %32 = tail call noundef i32 @llvm.bswap.i32(i32 %31)
  store i32 %32, ptr %0, align 4
  br label %33

33:                                               ; preds = %3, %28, %._crit_edge
  ret void
}